; ModuleID = 'bench/box2d/original/posix_module.ll'
source_filename = "bench/box2d/original/posix_module.ll"
target datalayout = "e-m:e-p270:32:32-p271:32:32-p272:64:64-i64:64-i128:128-f80:128-n8:16:32:64-S128"
target triple = "x86_64-pc-linux-gnu"

; Function Attrs: nounwind uwtable
define hidden ptr @_glfwPlatformLoadModule(ptr noundef %0) local_unnamed_addr #0 {
  %2 = tail call ptr @dlopen(ptr noundef %0, i32 noundef 1) #2
  ret ptr %2
}

; Function Attrs: nounwind
declare ptr @dlopen(ptr noundef, i32 noundef) local_unnamed_addr #1

; Function Attrs: nounwind uwtable
define hidden void @_glfwPlatformFreeModule(ptr noundef %0) local_unnamed_addr #0 {
  %2 = tail call i32 @dlclose(ptr noundef %0) #2
  ret void
}

; Function Attrs: nounwind
declare i32 @dlclose(ptr noundef) local_unnamed_addr #1

; Function Attrs: nounwind uwtable
define hidden ptr @_glfwPlatformGetModuleSymbol(ptr noundef %0, ptr noundef %1) local_unnamed_addr #0 {
  %3 = tail call ptr @dlsym(ptr noundef %0, ptr noundef %1) #2
  ret ptr %3
}

; Function Attrs: nounwind
declare ptr @dlsym(ptr noundef, ptr noundef) local_unnamed_addr #1


!llvm.module.flags = !{!0, !1, !2}

!0 = !{i32 1, !"wchar_size", i32 4}
!1 = !{i32 8, !"PIC Level", i32 2}
!2 = !{i32 7, !"uwtable", i32 2}
